; Function Attrs: null_pointer_is_valid sspstrong uwtable
define internal void @dissect_osd_set_key(ptr noundef %0, ptr noundef %1, ptr noundef %2, i32 noundef %3, i1 noundef zeroext %4, i1 noundef zeroext %5, i32 %6, ptr noundef captures(address_is_null) %7, ptr readnone captures(none) %8, ptr noundef %9) #3 {
  %.not = xor i1 %4, true
  %brmerge.not = and i1 %4, %5
  br i1 %brmerge.not, label %11, label %59

11:                                               ; preds = %10
  %12 = add i32 %3, 1
  %.not.i = icmp eq ptr %7, null
  br i1 %.not.i, label %dissect_osd_getsetattrib.exit, label %13

13:                                               ; preds = %11
  %14 = getelementptr inbounds nuw i8, ptr %7, i64 8
  %15 = load ptr, ptr %14, align 8
  %.not11.i = icmp eq ptr %15, null
  br i1 %.not11.i, label %dissect_osd_getsetattrib.exit, label %16

16:                                               ; preds = %13
  %17 = getelementptr inbounds nuw i8, ptr %15, i64 64
  %18 = load ptr, ptr %17, align 8
  %.not12.i = icmp eq ptr %18, null
  br i1 %.not12.i, label %dissect_osd_getsetattrib.exit, label %19

19:                                               ; preds = %16
  %20 = tail call zeroext i8 @tvb_get_uint8(ptr noundef %0, i32 noundef %12)
  %21 = lshr i8 %20, 4
  %22 = and i8 %21, 3
  %23 = getelementptr inbounds nuw i8, ptr %18, i64 2
  store i8 %22, ptr %23, align 2
  br label %dissect_osd_getsetattrib.exit

dissect_osd_getsetattrib.exit:                    ; preds = %11, %13, %16, %19
  %24 = load i32, ptr @hf_scsi_osd_getsetattrib, align 4
  %25 = tail call ptr @proto_tree_add_item(ptr noundef %2, i32 noundef %24, ptr noundef %0, i32 noundef %12, i32 noundef 1, i32 noundef 0)
  %26 = load i32, ptr @hf_scsi_osd_key_to_set, align 4
  %27 = tail call ptr @proto_tree_add_item(ptr noundef %2, i32 noundef %26, ptr noundef %0, i32 noundef %12, i32 noundef 1, i32 noundef 0)
  %28 = add i32 %3, 2
  %29 = load i32, ptr @hf_scsi_osd_timestamps_control, align 4
  %30 = tail call ptr @proto_tree_add_item(ptr noundef %2, i32 noundef %29, ptr noundef %0, i32 noundef %28, i32 noundef 1, i32 noundef 0)
  %31 = add i32 %3, 6
  %32 = load i32, ptr @hf_scsi_osd_partition_id, align 4
  %33 = tail call fastcc ptr @dissect_osd_partition_id(ptr noundef %1, ptr noundef %0, i32 noundef %31, ptr noundef %2, i32 noundef %32, ptr noundef %9, i1 noundef zeroext false, i1 noundef zeroext false)
  %34 = add i32 %3, 14
  %35 = load i32, ptr @hf_scsi_osd_set_key_version, align 4
  %36 = tail call ptr @proto_tree_add_item(ptr noundef %2, i32 noundef %35, ptr noundef %0, i32 noundef %34, i32 noundef 1, i32 noundef 0)
  %37 = add i32 %3, 15
  %38 = load i32, ptr @hf_scsi_osd_key_identifier, align 4
  %39 = tail call ptr @proto_tree_add_item(ptr noundef %2, i32 noundef %38, ptr noundef %0, i32 noundef %37, i32 noundef 7, i32 noundef 0)
  %40 = add i32 %3, 22
  %41 = load i32, ptr @hf_scsi_osd_seed, align 4
  %42 = tail call ptr @proto_tree_add_item(ptr noundef %2, i32 noundef %41, ptr noundef %0, i32 noundef %40, i32 noundef 20, i32 noundef 0)
  %43 = add i32 %3, 42
  tail call fastcc void @dissect_osd_attribute_parameters(ptr noundef %1, ptr noundef %0, i32 noundef %43, ptr noundef %2, ptr noundef %7)
  %44 = add i32 %3, 70
  tail call fastcc void @dissect_osd_capability(ptr noundef %0, i32 noundef %44, ptr noundef %2)
  %45 = add i32 %3, 150
  %46 = load i32, ptr @ett_osd_security_parameters, align 4
  %47 = tail call ptr @proto_tree_add_subtree(ptr noundef %2, ptr noundef %0, i32 noundef %45, i32 noundef 40, i32 noundef %46, ptr noundef null, ptr noundef nonnull @.str.294)
  %48 = load i32, ptr @hf_scsi_osd_ricv, align 4
  %49 = tail call ptr @proto_tree_add_item(ptr noundef %47, i32 noundef %48, ptr noundef %0, i32 noundef %45, i32 noundef 20, i32 noundef 0)
  %50 = add i32 %3, 170
  %51 = load i32, ptr @hf_scsi_osd_request_nonce, align 4
  %52 = tail call ptr @proto_tree_add_item(ptr noundef %47, i32 noundef %51, ptr noundef %0, i32 noundef %50, i32 noundef 12, i32 noundef 0)
  %53 = add i32 %3, 182
  %54 = load i32, ptr @hf_scsi_osd_diicvo, align 4
  %55 = tail call ptr @proto_tree_add_item(ptr noundef %47, i32 noundef %54, ptr noundef %0, i32 noundef %53, i32 noundef 4, i32 noundef 0)
  %56 = add i32 %3, 186
  %57 = load i32, ptr @hf_scsi_osd_doicvo, align 4
  %58 = tail call ptr @proto_tree_add_item(ptr noundef %47, i32 noundef %57, ptr noundef %0, i32 noundef %56, i32 noundef 4, i32 noundef 0)
  br label %59

59:                                               ; preds = %10, %dissect_osd_getsetattrib.exit
  %brmerge65 = or i1 %5, %.not
  br i1 %brmerge65, label %61, label %60

60:                                               ; preds = %59
  tail call fastcc void @dissect_osd_attribute_data_out(ptr noundef %1, ptr noundef %0, ptr noundef %2, ptr noundef %7, ptr noundef %9)
  br label %61

61:                                               ; preds = %59, %60
  %.not.i67 = icmp eq ptr %7, null
  %62 = or i1 %5, %.not.i67
  %or.cond = or i1 %4, %62
  br i1 %or.cond, label %dissect_osd_attribute_data_in.exit, label %63

63:                                               ; preds = %61
  %64 = getelementptr inbounds nuw i8, ptr %7, i64 8
  %65 = load ptr, ptr %64, align 8
  %.not14.i = icmp eq ptr %65, null
  br i1 %.not14.i, label %dissect_osd_attribute_data_in.exit, label %66

66:                                               ; preds = %63
  %67 = getelementptr inbounds nuw i8, ptr %65, i64 64
  %68 = load ptr, ptr %67, align 8
  %.not15.i = icmp eq ptr %68, null
  br i1 %.not15.i, label %dissect_osd_attribute_data_in.exit, label %69

69:                                               ; preds = %66
  %70 = getelementptr inbounds nuw i8, ptr %68, i64 2
  %71 = load i8, ptr %70, align 2
  %cond.i = icmp eq i8 %71, 3
  br i1 %cond.i, label %72, label %dissect_osd_attribute_data_in.exit

72:                                               ; preds = %69
  %73 = getelementptr inbounds nuw i8, ptr %68, i64 12
  %74 = load i32, ptr %73, align 4
  %.not16.i = icmp eq i32 %74, 0
  br i1 %.not16.i, label %dissect_osd_attribute_data_in.exit, label %75

75:                                               ; preds = %72
  %76 = getelementptr inbounds nuw i8, ptr %68, i64 16
  %77 = load i32, ptr %76, align 4
  %78 = getelementptr inbounds nuw i8, ptr %68, i64 32
  %79 = load i8, ptr %78, align 4, !range !9, !noundef !10
  %80 = trunc nuw i8 %79 to i1
  tail call fastcc void @dissect_osd_attributes_list(ptr noundef %1, ptr noundef %0, i32 noundef %77, ptr noundef %2, ptr noundef %9, i1 noundef zeroext %80)
  br label %dissect_osd_attribute_data_in.exit

dissect_osd_attribute_data_in.exit:               ; preds = %75, %72, %69, %66, %63, %61
  ret void
}